; ModuleID = '19/815.c'
source_filename = "19/815.c"
target datalayout = "e-m:e-p270:32:32-p271:32:32-p272:64:64-i64:64-f80:128-n8:16:32:64-S128"
target triple = "x86_64-pc-linux-gnu"

@.str = private unnamed_addr constant [3 x i8] c"%s\00", align 1
@.str.1 = private unnamed_addr constant [2 x i8] c" \00", align 1
@.str.2 = private unnamed_addr constant [3 x i8] c"%c\00", align 1

; Function Attrs: noinline nounwind uwtable
define dso_local void @main() #0 {
  %1 = alloca i8*, align 8
  %2 = alloca i8*, align 8
  %3 = alloca i8*, align 8
  %4 = alloca i8*, align 8
  %5 = alloca i8*, align 8
  %6 = call noalias i8* @malloc(i64 100) #3
  store i8* %6, i8** %3, align 8
  %7 = call noalias i8* @malloc(i64 100) #3
  store i8* %7, i8** %1, align 8
  %8 = call noalias i8* @malloc(i64 100) #3
  store i8* %8, i8** %2, align 8
  %9 = load i8*, i8** %3, align 8
  %10 = call i32 (i8*, ...) bitcast (i32 (...)* @gets to i32 (i8*, ...)*)(i8* %9)
  %11 = load i8*, i8** %1, align 8
  %12 = call i32 (i8*, ...) bitcast (i32 (...)* @gets to i32 (i8*, ...)*)(i8* %11)
  %13 = load i8*, i8** %2, align 8
  %14 = call i32 (i8*, ...) bitcast (i32 (...)* @gets to i32 (i8*, ...)*)(i8* %13)
  br label %15

15:                                               ; preds = %129, %0
  %16 = load i8*, i8** %1, align 8
  store i8* %16, i8** %4, align 8
  %17 = load i8*, i8** %3, align 8
  store i8* %17, i8** %5, align 8
  br label %18

18:                                               ; preds = %38, %15
  %19 = load i8*, i8** %3, align 8
  %20 = load i8, i8* %19, align 1
  %21 = sext i8 %20 to i32
  %22 = load i8*, i8** %4, align 8
  %23 = load i8, i8* %22, align 1
  %24 = sext i8 %23 to i32
  %25 = icmp eq i32 %21, %24
  br i1 %25, label %26, label %36

26:                                               ; preds = %18
  %27 = load i8*, i8** %3, align 8
  %28 = load i8, i8* %27, align 1
  %29 = sext i8 %28 to i32
  %30 = icmp ne i32 %29, 32
  br i1 %30, label %31, label %36

31:                                               ; preds = %26
  %32 = load i8*, i8** %3, align 8
  %33 = load i8, i8* %32, align 1
  %34 = sext i8 %33 to i32
  %35 = icmp ne i32 %34, 0
  br label %36

36:                                               ; preds = %31, %26, %18
  %37 = phi i1 [ false, %26 ], [ false, %18 ], [ %35, %31 ]
  br i1 %37, label %38, label %43

38:                                               ; preds = %36
  %39 = load i8*, i8** %4, align 8
  %40 = getelementptr inbounds i8, i8* %39, i32 1
  store i8* %40, i8** %4, align 8
  %41 = load i8*, i8** %3, align 8
  %42 = getelementptr inbounds i8, i8* %41, i32 1
  store i8* %42, i8** %3, align 8
  br label %18

43:                                               ; preds = %36
  %44 = load i8*, i8** %3, align 8
  %45 = load i8, i8* %44, align 1
  %46 = sext i8 %45 to i32
  %47 = icmp eq i32 %46, 32
  br i1 %47, label %48, label %57

48:                                               ; preds = %43
  %49 = load i8*, i8** %4, align 8
  %50 = load i8, i8* %49, align 1
  %51 = sext i8 %50 to i32
  %52 = icmp eq i32 %51, 0
  br i1 %52, label %53, label %57

53:                                               ; preds = %48
  %54 = load i8*, i8** %2, align 8
  %55 = call i32 (i8*, ...) @printf(i8* getelementptr inbounds ([3 x i8], [3 x i8]* @.str, i64 0, i64 0), i8* %54)
  %56 = call i32 (i8*, ...) @printf(i8* getelementptr inbounds ([2 x i8], [2 x i8]* @.str.1, i64 0, i64 0))
  br label %129

57:                                               ; preds = %48, %43
  %58 = load i8*, i8** %3, align 8
  %59 = load i8, i8* %58, align 1
  %60 = sext i8 %59 to i32
  %61 = icmp eq i32 %60, 0
  br i1 %61, label %62, label %70

62:                                               ; preds = %57
  %63 = load i8*, i8** %4, align 8
  %64 = load i8, i8* %63, align 1
  %65 = sext i8 %64 to i32
  %66 = icmp eq i32 %65, 0
  br i1 %66, label %67, label %70

67:                                               ; preds = %62
  %68 = load i8*, i8** %2, align 8
  %69 = call i32 (i8*, ...) @printf(i8* getelementptr inbounds ([3 x i8], [3 x i8]* @.str, i64 0, i64 0), i8* %68)
  br label %132

70:                                               ; preds = %62, %57
  br label %71

71:                                               ; preds = %70
  br label %72

72:                                               ; preds = %84, %71
  %73 = load i8*, i8** %3, align 8
  %74 = load i8, i8* %73, align 1
  %75 = sext i8 %74 to i32
  %76 = icmp ne i32 %75, 32
  br i1 %76, label %77, label %82

77:                                               ; preds = %72
  %78 = load i8*, i8** %3, align 8
  %79 = load i8, i8* %78, align 1
  %80 = sext i8 %79 to i32
  %81 = icmp ne i32 %80, 0
  br label %82

82:                                               ; preds = %77, %72
  %83 = phi i1 [ false, %72 ], [ %81, %77 ]
  br i1 %83, label %84, label %87

84:                                               ; preds = %82
  %85 = load i8*, i8** %3, align 8
  %86 = getelementptr inbounds i8, i8* %85, i32 1
  store i8* %86, i8** %3, align 8
  br label %72

87:                                               ; preds = %82
  %88 = load i8*, i8** %3, align 8
  %89 = load i8, i8* %88, align 1
  %90 = sext i8 %89 to i32
  %91 = icmp eq i32 %90, 32
  br i1 %91, label %92, label %108

92:                                               ; preds = %87
  br label %93

93:                                               ; preds = %103, %92
  %94 = load i8*, i8** %5, align 8
  %95 = load i8, i8* %94, align 1
  %96 = sext i8 %95 to i32
  %97 = icmp ne i32 %96, 32
  br i1 %97, label %98, label %106

98:                                               ; preds = %93
  %99 = load i8*, i8** %5, align 8
  %100 = load i8, i8* %99, align 1
  %101 = sext i8 %100 to i32
  %102 = call i32 (i8*, ...) @printf(i8* getelementptr inbounds ([3 x i8], [3 x i8]* @.str.2, i64 0, i64 0), i32 %101)
  br label %103

103:                                              ; preds = %98
  %104 = load i8*, i8** %5, align 8
  %105 = getelementptr inbounds i8, i8* %104, i32 1
  store i8* %105, i8** %5, align 8
  br label %93

106:                                              ; preds = %93
  %107 = call i32 (i8*, ...) @printf(i8* getelementptr inbounds ([2 x i8], [2 x i8]* @.str.1, i64 0, i64 0))
  br label %108

108:                                              ; preds = %106, %87
  %109 = load i8*, i8** %3, align 8
  %110 = load i8, i8* %109, align 1
  %111 = sext i8 %110 to i32
  %112 = icmp eq i32 %111, 0
  br i1 %112, label %113, label %128

113:                                              ; preds = %108
  br label %114

114:                                              ; preds = %124, %113
  %115 = load i8*, i8** %5, align 8
  %116 = load i8, i8* %115, align 1
  %117 = sext i8 %116 to i32
  %118 = icmp ne i32 %117, 0
  br i1 %118, label %119, label %127

119:                                              ; preds = %114
  %120 = load i8*, i8** %5, align 8
  %121 = load i8, i8* %120, align 1
  %122 = sext i8 %121 to i32
  %123 = call i32 (i8*, ...) @printf(i8* getelementptr inbounds ([3 x i8], [3 x i8]* @.str.2, i64 0, i64 0), i32 %122)
  br label %124

124:                                              ; preds = %119
  %125 = load i8*, i8** %5, align 8
  %126 = getelementptr inbounds i8, i8* %125, i32 1
  store i8* %126, i8** %5, align 8
  br label %114

127:                                              ; preds = %114
  br label %132

128:                                              ; preds = %108
  br label %129

129:                                              ; preds = %128, %53
  %130 = load i8*, i8** %3, align 8
  %131 = getelementptr inbounds i8, i8* %130, i32 1
  store i8* %131, i8** %3, align 8
  br label %15

132:                                              ; preds = %127, %67
  ret void
}

; Function Attrs: nounwind
declare dso_local noalias i8* @malloc(i64) #1

declare dso_local i32 @gets(...) #2

declare dso_local i32 @printf(i8*, ...) #2


!llvm.module.flags = !{!0}
!llvm.ident = !{!1}

!0 = !{i32 1, !"wchar_size", i32 4}
!1 = !{!"clang version 10.0.0-4ubuntu1 "}
